target datalayout = "e-m:e-p270:32:32-p271:32:32-p272:64:64-i64:64-i128:128-f80:128-n8:16:32:64-S128"
target triple = "x86_64-pc-linux-gnu"

%struct.lbr_state = type { i64, %union.RepeatControl }
%union.RepeatControl = type { %struct.RepeatRingControl }
%struct.RepeatRingControl = type { i64, i16, i16 }
%struct.lbr_common = type { i32, i32 }
%struct.RepeatInfo = type { i8, i32, i32, i32, i32, i32, i32, [2 x i32], i32, i32, i32, i32, i32 }
%struct.RepeatRangeControl = type { i64, i8 }
%struct.RepeatOffsetControl = type { i64 }
%struct.RepeatBitmapControl = type { i64, i64 }
%struct.RepeatTrailerControl = type { i64, i64 }

; Function Attrs: alwaysinline nounwind uwtable
define internal void @repeatStoreLast(ptr noundef %0, i64 noundef %1, i8 noundef signext %2) #2 {
  %4 = alloca ptr, align 8
  %5 = alloca i64, align 8
  %6 = alloca i8, align 1
  store ptr %0, ptr %4, align 8
  store i64 %1, ptr %5, align 8
  store i8 %2, ptr %6, align 1
  %7 = load i64, ptr %5, align 8
  %8 = load ptr, ptr %4, align 8
  %9 = getelementptr inbounds nuw %struct.RepeatOffsetControl, ptr %8, i32 0, i32 0
  store i64 %7, ptr %9, align 8
  ret void
}

; Function Attrs: alwaysinline nounwind uwtable
define internal void @repeatStoreFirst(ptr noundef %0, i64 noundef %1, i8 noundef signext %2) #2 {
  %4 = alloca ptr, align 8
  %5 = alloca i64, align 8
  %6 = alloca i8, align 1
  store ptr %0, ptr %4, align 8
  store i64 %1, ptr %5, align 8
  store i8 %2, ptr %6, align 1
  %7 = load i8, ptr %6, align 1
  %8 = icmp ne i8 %7, 0
  br i1 %8, label %9, label %10

9:                                                ; preds = %3
  br label %14

10:                                               ; preds = %3
  %11 = load i64, ptr %5, align 8
  %12 = load ptr, ptr %4, align 8
  %13 = getelementptr inbounds nuw %struct.RepeatOffsetControl, ptr %12, i32 0, i32 0
  store i64 %11, ptr %13, align 8
  br label %14

14:                                               ; preds = %10, %9
  ret void
}

; Function Attrs: alwaysinline nounwind uwtable
define internal void @repeatStore(ptr noundef %0, ptr noundef %1, ptr noundef %2, i64 noundef %3, i8 noundef signext %4) #2 {
  %6 = alloca ptr, align 8
  %7 = alloca ptr, align 8
  %8 = alloca ptr, align 8
  %9 = alloca i64, align 8
  %10 = alloca i8, align 1
  store ptr %0, ptr %6, align 8
  store ptr %1, ptr %7, align 8
  store ptr %2, ptr %8, align 8
  store i64 %3, ptr %9, align 8
  store i8 %4, ptr %10, align 1
  %11 = load ptr, ptr %6, align 8
  %12 = getelementptr inbounds nuw %struct.RepeatInfo, ptr %11, i32 0, i32 0
  %13 = load i8, ptr %12, align 4
  %14 = zext i8 %13 to i32
  switch i32 %14, label %51 [
    i32 0, label %15
    i32 1, label %21
    i32 2, label %25
    i32 3, label %29
    i32 4, label %35
    i32 5, label %40
    i32 6, label %46
    i32 7, label %51
  ]

15:                                               ; preds = %5
  %16 = load ptr, ptr %6, align 8
  %17 = load ptr, ptr %7, align 8
  %18 = load ptr, ptr %8, align 8
  %19 = load i64, ptr %9, align 8
  %20 = load i8, ptr %10, align 1
  call void @repeatStoreRing(ptr noundef %16, ptr noundef %17, ptr noundef %18, i64 noundef %19, i8 noundef signext %20)
  br label %51

21:                                               ; preds = %5
  %22 = load ptr, ptr %7, align 8
  %23 = load i64, ptr %9, align 8
  %24 = load i8, ptr %10, align 1
  call void @repeatStoreFirst(ptr noundef %22, i64 noundef %23, i8 noundef signext %24)
  br label %51

25:                                               ; preds = %5
  %26 = load ptr, ptr %7, align 8
  %27 = load i64, ptr %9, align 8
  %28 = load i8, ptr %10, align 1
  call void @repeatStoreLast(ptr noundef %26, i64 noundef %27, i8 noundef signext %28)
  br label %51

29:                                               ; preds = %5
  %30 = load ptr, ptr %6, align 8
  %31 = load ptr, ptr %7, align 8
  %32 = load ptr, ptr %8, align 8
  %33 = load i64, ptr %9, align 8
  %34 = load i8, ptr %10, align 1
  call void @repeatStoreRange(ptr noundef %30, ptr noundef %31, ptr noundef %32, i64 noundef %33, i8 noundef signext %34)
  br label %51

35:                                               ; preds = %5
  %36 = load ptr, ptr %6, align 8
  %37 = load ptr, ptr %7, align 8
  %38 = load i64, ptr %9, align 8
  %39 = load i8, ptr %10, align 1
  call void @repeatStoreBitmap(ptr noundef %36, ptr noundef %37, i64 noundef %38, i8 noundef signext %39)
  br label %51

40:                                               ; preds = %5
  %41 = load ptr, ptr %6, align 8
  %42 = load ptr, ptr %7, align 8
  %43 = load ptr, ptr %8, align 8
  %44 = load i64, ptr %9, align 8
  %45 = load i8, ptr %10, align 1
  call void @repeatStoreSparseOptimalP(ptr noundef %41, ptr noundef %42, ptr noundef %43, i64 noundef %44, i8 noundef signext %45)
  br label %51

46:                                               ; preds = %5
  %47 = load ptr, ptr %6, align 8
  %48 = load ptr, ptr %7, align 8
  %49 = load i64, ptr %9, align 8
  %50 = load i8, ptr %10, align 1
  call void @repeatStoreTrailer(ptr noundef %47, ptr noundef %48, i64 noundef %49, i8 noundef signext %50)
  br label %51

51:                                               ; preds = %5, %5, %46, %40, %35, %29, %25, %21, %15
  ret void
}

; Function Attrs: alwaysinline nounwind uwtable
define internal i64 @repeatLastTop(ptr noundef %0, ptr noundef %1, ptr noundef %2) #2 {
  %4 = alloca i64, align 8
  %5 = alloca ptr, align 8
  %6 = alloca ptr, align 8
  %7 = alloca ptr, align 8
  store ptr %0, ptr %5, align 8
  store ptr %1, ptr %6, align 8
  store ptr %2, ptr %7, align 8
  %8 = load ptr, ptr %5, align 8
  %9 = getelementptr inbounds nuw %struct.RepeatInfo, ptr %8, i32 0, i32 0
  %10 = load i8, ptr %9, align 4
  %11 = zext i8 %10 to i32
  switch i32 %11, label %37 [
    i32 0, label %12
    i32 1, label %16
    i32 2, label %16
    i32 3, label %20
    i32 4, label %24
    i32 5, label %27
    i32 6, label %32
    i32 7, label %36
  ]

12:                                               ; preds = %3
  %13 = load ptr, ptr %5, align 8
  %14 = load ptr, ptr %6, align 8
  %15 = call i64 @repeatLastTopRing(ptr noundef %13, ptr noundef %14)
  store i64 %15, ptr %4, align 8
  br label %40

16:                                               ; preds = %3, %3
  %17 = load ptr, ptr %6, align 8
  %18 = getelementptr inbounds nuw %struct.RepeatOffsetControl, ptr %17, i32 0, i32 0
  %19 = load i64, ptr %18, align 8
  store i64 %19, ptr %4, align 8
  br label %40

20:                                               ; preds = %3
  %21 = load ptr, ptr %6, align 8
  %22 = load ptr, ptr %7, align 8
  %23 = call i64 @repeatLastTopRange(ptr noundef %21, ptr noundef %22)
  store i64 %23, ptr %4, align 8
  br label %40

24:                                               ; preds = %3
  %25 = load ptr, ptr %6, align 8
  %26 = call i64 @repeatLastTopBitmap(ptr noundef %25)
  store i64 %26, ptr %4, align 8
  br label %40

27:                                               ; preds = %3
  %28 = load ptr, ptr %5, align 8
  %29 = load ptr, ptr %6, align 8
  %30 = load ptr, ptr %7, align 8
  %31 = call i64 @repeatLastTopSparseOptimalP(ptr noundef %28, ptr noundef %29, ptr noundef %30)
  store i64 %31, ptr %4, align 8
  br label %40

32:                                               ; preds = %3
  %33 = load ptr, ptr %5, align 8
  %34 = load ptr, ptr %6, align 8
  %35 = call i64 @repeatLastTopTrailer(ptr noundef %33, ptr noundef %34)
  store i64 %35, ptr %4, align 8
  br label %40

36:                                               ; preds = %3
  store i64 0, ptr %4, align 8
  br label %40

37:                                               ; preds = %3
  br label %38

38:                                               ; preds = %37
  br label %39

39:                                               ; preds = %38
  store i64 0, ptr %4, align 8
  br label %40

40:                                               ; preds = %39, %36, %32, %27, %24, %20, %16, %12
  %41 = load i64, ptr %4, align 8
  ret i64 %41
}

; Function Attrs: alwaysinline nounwind uwtable
define internal signext i8 @repeatIsDead(ptr noundef %0, ptr noundef %1) #2 {
  %3 = alloca i8, align 1
  %4 = alloca ptr, align 8
  %5 = alloca ptr, align 8
  store ptr %0, ptr %4, align 8
  store ptr %1, ptr %5, align 8
  %6 = load ptr, ptr %4, align 8
  %7 = getelementptr inbounds nuw %struct.RepeatInfo, ptr %6, i32 0, i32 0
  %8 = load i8, ptr %7, align 4
  %9 = zext i8 %8 to i32
  switch i32 %9, label %59 [
    i32 0, label %10
    i32 3, label %18
    i32 1, label %26
    i32 2, label %26
    i32 4, label %34
    i32 5, label %42
    i32 6, label %50
    i32 7, label %58
  ]

10:                                               ; preds = %2
  %11 = load ptr, ptr %5, align 8
  %12 = getelementptr inbounds nuw %struct.lbr_state, ptr %11, i32 0, i32 1
  %13 = getelementptr inbounds nuw %struct.RepeatRingControl, ptr %12, i32 0, i32 0
  %14 = load i64, ptr %13, align 8
  %15 = icmp eq i64 %14, -1
  %16 = zext i1 %15 to i32
  %17 = trunc i32 %16 to i8
  store i8 %17, ptr %3, align 1
  br label %60

18:                                               ; preds = %2
  %19 = load ptr, ptr %5, align 8
  %20 = getelementptr inbounds nuw %struct.lbr_state, ptr %19, i32 0, i32 1
  %21 = getelementptr inbounds nuw %struct.RepeatRangeControl, ptr %20, i32 0, i32 0
  %22 = load i64, ptr %21, align 8
  %23 = icmp eq i64 %22, -1
  %24 = zext i1 %23 to i32
  %25 = trunc i32 %24 to i8
  store i8 %25, ptr %3, align 1
  br label %60

26:                                               ; preds = %2, %2
  %27 = load ptr, ptr %5, align 8
  %28 = getelementptr inbounds nuw %struct.lbr_state, ptr %27, i32 0, i32 1
  %29 = getelementptr inbounds nuw %struct.RepeatOffsetControl, ptr %28, i32 0, i32 0
  %30 = load i64, ptr %29, align 8
  %31 = icmp eq i64 %30, -1
  %32 = zext i1 %31 to i32
  %33 = trunc i32 %32 to i8
  store i8 %33, ptr %3, align 1
  br label %60

34:                                               ; preds = %2
  %35 = load ptr, ptr %5, align 8
  %36 = getelementptr inbounds nuw %struct.lbr_state, ptr %35, i32 0, i32 1
  %37 = getelementptr inbounds nuw %struct.RepeatBitmapControl, ptr %36, i32 0, i32 0
  %38 = load i64, ptr %37, align 8
  %39 = icmp eq i64 %38, -1
  %40 = zext i1 %39 to i32
  %41 = trunc i32 %40 to i8
  store i8 %41, ptr %3, align 1
  br label %60

42:                                               ; preds = %2
  %43 = load ptr, ptr %5, align 8
  %44 = getelementptr inbounds nuw %struct.lbr_state, ptr %43, i32 0, i32 1
  %45 = getelementptr inbounds nuw %struct.RepeatRingControl, ptr %44, i32 0, i32 0
  %46 = load i64, ptr %45, align 8
  %47 = icmp eq i64 %46, -1
  %48 = zext i1 %47 to i32
  %49 = trunc i32 %48 to i8
  store i8 %49, ptr %3, align 1
  br label %60

50:                                               ; preds = %2
  %51 = load ptr, ptr %5, align 8
  %52 = getelementptr inbounds nuw %struct.lbr_state, ptr %51, i32 0, i32 1
  %53 = getelementptr inbounds nuw %struct.RepeatTrailerControl, ptr %52, i32 0, i32 0
  %54 = load i64, ptr %53, align 8
  %55 = icmp eq i64 %54, -1
  %56 = zext i1 %55 to i32
  %57 = trunc i32 %56 to i8
  store i8 %57, ptr %3, align 1
  br label %60

58:                                               ; preds = %2
  store i8 0, ptr %3, align 1
  br label %60

59:                                               ; preds = %2
  store i8 1, ptr %3, align 1
  br label %60

60:                                               ; preds = %59, %58, %50, %42, %34, %26, %18, %10
  %61 = load i8, ptr %3, align 1
  ret i8 %61
}

; Function Attrs: alwaysinline nounwind uwtable
define internal void @lbrCompressState(ptr noundef %0, i64 noundef %1, ptr noundef %2, ptr noundef %3) #2 {
  %5 = alloca ptr, align 8
  %6 = alloca i64, align 8
  %7 = alloca ptr, align 8
  %8 = alloca ptr, align 8
  %9 = alloca ptr, align 8
  store ptr %0, ptr %5, align 8
  store i64 %1, ptr %6, align 8
  store ptr %2, ptr %7, align 8
  store ptr %3, ptr %8, align 8
  call void @llvm.lifetime.start.p0(i64 8, ptr %9) #8
  %10 = load ptr, ptr %5, align 8
  %11 = call ptr @getRepeatInfo(ptr noundef %10)
  store ptr %11, ptr %9, align 8
  %12 = load ptr, ptr %8, align 8
  %13 = load ptr, ptr %9, align 8
  %14 = load ptr, ptr %7, align 8
  %15 = getelementptr inbounds nuw %struct.lbr_state, ptr %14, i32 0, i32 1
  %16 = load i64, ptr %6, align 8
  call void @repeatPack(ptr noundef %12, ptr noundef %13, ptr noundef %15, i64 noundef %16)
  call void @llvm.lifetime.end.p0(i64 8, ptr %9) #8
  ret void
}

; Function Attrs: alwaysinline nounwind uwtable
define internal void @lbrTop(ptr noundef %0, ptr noundef %1, ptr noundef %2, i64 noundef %3) #2 {
  %5 = alloca ptr, align 8
  %6 = alloca ptr, align 8
  %7 = alloca ptr, align 8
  %8 = alloca i64, align 8
  %9 = alloca ptr, align 8
  %10 = alloca ptr, align 8
  %11 = alloca i8, align 1
  %12 = alloca i64, align 8
  %13 = alloca i32, align 4
  store ptr %0, ptr %5, align 8
  store ptr %1, ptr %6, align 8
  store ptr %2, ptr %7, align 8
  store i64 %3, ptr %8, align 8
  br label %14

14:                                               ; preds = %4
  br label %15

15:                                               ; preds = %14
  call void @llvm.lifetime.start.p0(i64 8, ptr %9) #8
  %16 = load ptr, ptr %5, align 8
  %17 = call ptr @getRepeatInfo(ptr noundef %16)
  store ptr %17, ptr %9, align 8
  call void @llvm.lifetime.start.p0(i64 8, ptr %10) #8
  %18 = load ptr, ptr %7, align 8
  %19 = load ptr, ptr %9, align 8
  %20 = getelementptr inbounds nuw %struct.RepeatInfo, ptr %19, i32 0, i32 4
  %21 = load i32, ptr %20, align 4
  %22 = zext i32 %21 to i64
  %23 = getelementptr inbounds nuw i8, ptr %18, i64 %22
  store ptr %23, ptr %10, align 8
  call void @llvm.lifetime.start.p0(i64 1, ptr %11) #8
  %24 = load ptr, ptr %9, align 8
  %25 = load ptr, ptr %6, align 8
  %26 = call signext i8 @repeatIsDead(ptr noundef %24, ptr noundef %25)
  %27 = icmp ne i8 %26, 0
  %28 = xor i1 %27, true
  %29 = zext i1 %28 to i32
  %30 = trunc i32 %29 to i8
  store i8 %30, ptr %11, align 1
  %31 = load i8, ptr %11, align 1
  %32 = icmp ne i8 %31, 0
  br i1 %32, label %33, label %47

33:                                               ; preds = %15
  call void @llvm.lifetime.start.p0(i64 8, ptr %12) #8
  %34 = load ptr, ptr %9, align 8
  %35 = load ptr, ptr %6, align 8
  %36 = getelementptr inbounds nuw %struct.lbr_state, ptr %35, i32 0, i32 1
  %37 = load ptr, ptr %10, align 8
  %38 = call i64 @repeatLastTop(ptr noundef %34, ptr noundef %36, ptr noundef %37)
  store i64 %38, ptr %12, align 8
  %39 = load i64, ptr %12, align 8
  %40 = load i64, ptr %8, align 8
  %41 = icmp eq i64 %39, %40
  br i1 %41, label %42, label %43

42:                                               ; preds = %33
  store i32 1, ptr %13, align 4
  br label %44

43:                                               ; preds = %33
  store i32 0, ptr %13, align 4
  br label %44

44:                                               ; preds = %43, %42
  call void @llvm.lifetime.end.p0(i64 8, ptr %12) #8
  %45 = load i32, ptr %13, align 4
  switch i32 %45, label %54 [
    i32 0, label %46
  ]

46:                                               ; preds = %44
  br label %47

47:                                               ; preds = %46, %15
  %48 = load ptr, ptr %9, align 8
  %49 = load ptr, ptr %6, align 8
  %50 = getelementptr inbounds nuw %struct.lbr_state, ptr %49, i32 0, i32 1
  %51 = load ptr, ptr %10, align 8
  %52 = load i64, ptr %8, align 8
  %53 = load i8, ptr %11, align 1
  call void @repeatStore(ptr noundef %48, ptr noundef %50, ptr noundef %51, i64 noundef %52, i8 noundef signext %53)
  store i32 0, ptr %13, align 4
  br label %54

54:                                               ; preds = %47, %44
  call void @llvm.lifetime.end.p0(i64 1, ptr %11) #8
  call void @llvm.lifetime.end.p0(i64 8, ptr %10) #8
  call void @llvm.lifetime.end.p0(i64 8, ptr %9) #8
  %55 = load i32, ptr %13, align 4
  switch i32 %55, label %57 [
    i32 0, label %56
    i32 1, label %56
  ]

56:                                               ; preds = %54, %54
  ret void

57:                                               ; preds = %54
  unreachable
}

; Function Attrs: alwaysinline nounwind uwtable
define internal void @clearRepeat(ptr noundef %0, ptr noundef %1) #2 {
  %3 = alloca ptr, align 8
  %4 = alloca ptr, align 8
  store ptr %0, ptr %3, align 8
  store ptr %1, ptr %4, align 8
  br label %5

5:                                                ; preds = %2
  br label %6

6:                                                ; preds = %5
  %7 = load ptr, ptr %3, align 8
  %8 = getelementptr inbounds nuw %struct.RepeatInfo, ptr %7, i32 0, i32 0
  %9 = load i8, ptr %8, align 4
  %10 = zext i8 %9 to i32
  switch i32 %10, label %35 [
    i32 0, label %11
    i32 3, label %15
    i32 1, label %19
    i32 2, label %19
    i32 4, label %23
    i32 5, label %27
    i32 6, label %31
  ]

11:                                               ; preds = %6
  %12 = load ptr, ptr %4, align 8
  %13 = getelementptr inbounds nuw %struct.lbr_state, ptr %12, i32 0, i32 1
  %14 = getelementptr inbounds nuw %struct.RepeatRingControl, ptr %13, i32 0, i32 0
  store i64 -1, ptr %14, align 8
  br label %36

15:                                               ; preds = %6
  %16 = load ptr, ptr %4, align 8
  %17 = getelementptr inbounds nuw %struct.lbr_state, ptr %16, i32 0, i32 1
  %18 = getelementptr inbounds nuw %struct.RepeatRangeControl, ptr %17, i32 0, i32 0
  store i64 -1, ptr %18, align 8
  br label %36

19:                                               ; preds = %6, %6
  %20 = load ptr, ptr %4, align 8
  %21 = getelementptr inbounds nuw %struct.lbr_state, ptr %20, i32 0, i32 1
  %22 = getelementptr inbounds nuw %struct.RepeatOffsetControl, ptr %21, i32 0, i32 0
  store i64 -1, ptr %22, align 8
  br label %36

23:                                               ; preds = %6
  %24 = load ptr, ptr %4, align 8
  %25 = getelementptr inbounds nuw %struct.lbr_state, ptr %24, i32 0, i32 1
  %26 = getelementptr inbounds nuw %struct.RepeatBitmapControl, ptr %25, i32 0, i32 0
  store i64 -1, ptr %26, align 8
  br label %36

27:                                               ; preds = %6
  %28 = load ptr, ptr %4, align 8
  %29 = getelementptr inbounds nuw %struct.lbr_state, ptr %28, i32 0, i32 1
  %30 = getelementptr inbounds nuw %struct.RepeatRingControl, ptr %29, i32 0, i32 0
  store i64 -1, ptr %30, align 8
  br label %36

31:                                               ; preds = %6
  %32 = load ptr, ptr %4, align 8
  %33 = getelementptr inbounds nuw %struct.lbr_state, ptr %32, i32 0, i32 1
  %34 = getelementptr inbounds nuw %struct.RepeatTrailerControl, ptr %33, i32 0, i32 0
  store i64 -1, ptr %34, align 8
  br label %36

35:                                               ; preds = %6
  br label %36

36:                                               ; preds = %35, %31, %27, %23, %19, %15, %11
  ret void
}

; Function Attrs: alwaysinline nounwind uwtable
define internal ptr @getRepeatInfo(ptr noundef %0) #2 {
  %2 = alloca ptr, align 8
  %3 = alloca ptr, align 8
  store ptr %0, ptr %2, align 8
  call void @llvm.lifetime.start.p0(i64 8, ptr %3) #8
  %4 = load ptr, ptr %2, align 8
  %5 = load ptr, ptr %2, align 8
  %6 = getelementptr inbounds nuw %struct.lbr_common, ptr %5, i32 0, i32 0
  %7 = load i32, ptr %6, align 4
  %8 = zext i32 %7 to i64
  %9 = getelementptr inbounds nuw i8, ptr %4, i64 %8
  store ptr %9, ptr %3, align 8
  %10 = load ptr, ptr %3, align 8
  call void @llvm.lifetime.end.p0(i64 8, ptr %3) #8
  ret ptr %10
}

; Function Attrs: nounwind uwtable
define hidden signext i8 @nfaExecLbrVerm_initCompressedState(ptr noundef %0, i64 noundef %1, ptr noundef %2, i8 noundef zeroext %3) #0 {
  %5 = alloca ptr, align 8
  %6 = alloca i64, align 8
  %7 = alloca ptr, align 8
  %8 = alloca i8, align 1
  %9 = alloca ptr, align 8
  %10 = alloca ptr, align 8
  %11 = alloca %struct.lbr_state, align 8
  store ptr %0, ptr %5, align 8
  store i64 %1, ptr %6, align 8
  store ptr %2, ptr %7, align 8
  store i8 %3, ptr %8, align 1
  br label %12

12:                                               ; preds = %4
  br label %13

13:                                               ; preds = %12
  call void @llvm.lifetime.start.p0(i64 8, ptr %9) #8
  %14 = load ptr, ptr %5, align 8
  %15 = getelementptr inbounds nuw i8, ptr %14, i64 64
  store ptr %15, ptr %9, align 8
  call void @llvm.lifetime.start.p0(i64 8, ptr %10) #8
  %16 = load ptr, ptr %9, align 8
  %17 = call ptr @getRepeatInfo(ptr noundef %16)
  store ptr %17, ptr %10, align 8
  call void @llvm.lifetime.start.p0(i64 24, ptr %11) #8
  %18 = load ptr, ptr %10, align 8
  call void @clearRepeat(ptr noundef %18, ptr noundef %11)
  %19 = load ptr, ptr %9, align 8
  %20 = load ptr, ptr %7, align 8
  %21 = load i64, ptr %6, align 8
  call void @lbrTop(ptr noundef %19, ptr noundef %11, ptr noundef %20, i64 noundef %21)
  %22 = load ptr, ptr %9, align 8
  %23 = load i64, ptr %6, align 8
  %24 = load ptr, ptr %7, align 8
  call void @lbrCompressState(ptr noundef %22, i64 noundef %23, ptr noundef %11, ptr noundef %24)
  call void @llvm.lifetime.end.p0(i64 24, ptr %11) #8
  call void @llvm.lifetime.end.p0(i64 8, ptr %10) #8
  call void @llvm.lifetime.end.p0(i64 8, ptr %9) #8
  ret i8 1
}